ccopy_reg
_reconstructor
p0
(cgoogle.oauth2.credentials
Credentials
p1
c__builtin__
object
p2
Ntp3
Rp4
(dp5
S'_token_uri'
p6
Vhttps://oauth2.googleapis.com/token
p7
sS'_scopes'
p8
(lp9
S'https://www.googleapis.com/auth/gmail.send'
p10
asS'_id_token'
p11
NsS'token'
p12
Vya29.GlwnB0ARmFmy8AsdGV95NLRo8CoKz_W-c0d3i_isa9cZFJy8hyLFWa64zmK9373U7kGyHInQj8OZkc_Im9bawE2TqBA7_bTUP7IdSpXLT1sjVxw98hNp88wBJPnAUw
p13
sS'_refresh_token'
p14
V1/viJ1ieQhvcvpd-e_-V4S_bOnFvgHlgVzCK-woQL2PA4
p15
sS'_client_secret'
p16
V2qRQdaVNh8djlYrQ5-RnYjVx
p17
sS'_client_id'
p18
V387198716982-6rn6vo2iou2fassvho48mtqijpi7g221.apps.googleusercontent.com
p19
sS'expiry'
p20
cdatetime
datetime
p21
(S"\x07\xe3\x06\x0c\x16'\x19\x0cV\xe1"
p22
tp23
Rp24
sb.